; Function Attrs: nounwind uwtable
define void @_ZTv0_n24_N5arrow2io15SlowInputStreamD0Ev(ptr noundef %0) unnamed_addr #9 align 2 {
  %2 = load ptr, ptr %0, align 8, !tbaa !3
  %3 = getelementptr inbounds i8, ptr %2, i64 -24
  %4 = load i64, ptr %3, align 8
  %5 = getelementptr inbounds i8, ptr %0, i64 %4
  tail call void @_ZN5arrow2io15SlowInputStreamD2Ev(ptr noundef nonnull align 8 dereferenceable(40) %5, ptr noundef nonnull @_ZTTN5arrow2io15SlowInputStreamE) #25
  %6 = getelementptr inbounds nuw i8, ptr %5, i64 40
  tail call void @_ZN5arrow2io13FileInterfaceD2Ev(ptr noundef nonnull align 8 dereferenceable(28) %6) #25
  tail call void @_ZdlPvm(ptr noundef nonnull align 8 dereferenceable(40) %5, i64 noundef 72) #28
  ret void
}